Certificate:
    Data:
        Version: 1 (0x0)
        Serial Number: 1 (0x1)
    Signature Algorithm: md5WithRSAEncryption
        Issuer: O=Malzahn Consulting, OU=Testlab/emailAddress=matthias@malzahn.kim, L=Berlin, ST=Berlin, C=DE, CN=MalzahnCA
        Validity
            Not Before: Jan 11 21:59:00 2018 GMT
            Not After : Jan 11 21:59:00 2019 GMT
        Subject: C=DE, ST=Berlin, O=Malzahn Consulting, OU=Testlab, CN=raspi1
        Subject Public Key Info:
            Public Key Algorithm: rsaEncryption
                Public-Key: (4096 bit)
                Modulus:
                    00:b4:0b:84:ee:4b:a7:3d:09:36:a4:08:80:0d:06:
                    a0:6d:af:04:c8:7f:67:ba:09:43:36:29:55:61:71:
                    e2:92:dd:ff:74:ec:b0:6c:ae:2d:5d:af:2b:c0:c7:
                    41:4a:e4:b8:c6:7d:fd:cb:b2:ca:5f:1d:27:57:2d:
                    d2:9f:75:6a:ef:54:de:dc:80:87:06:40:59:73:ce:
                    a6:3a:ef:6e:54:c1:94:6f:02:91:12:52:a9:9d:92:
                    ea:a3:8b:2b:6d:2d:8f:d0:fe:cf:ae:e7:f7:0a:49:
                    05:7d:8a:83:83:33:8e:49:8a:37:df:cb:65:72:9d:
                    e8:ae:8e:5e:4e:12:28:1f:58:8b:33:c4:3c:9d:58:
                    75:90:92:aa:63:24:7c:6e:cb:e5:7f:65:c8:6a:5c:
                    62:7d:f8:1c:a6:4a:c4:58:61:91:f2:3b:57:1f:7c:
                    15:02:cc:6e:99:a5:c5:4b:5e:6a:a8:fa:f1:97:f8:
                    e5:05:2b:10:29:76:57:74:5f:ce:d3:da:d3:61:d0:
                    ab:a4:97:2b:d0:61:5d:a6:23:de:a2:e1:5d:f2:aa:
                    52:4b:9d:eb:f2:67:9c:f3:74:99:fe:95:aa:5d:75:
                    24:46:b1:ba:3a:be:4f:cf:df:5d:c0:b6:00:ec:71:
                    11:88:e0:c9:c5:22:c4:c6:fa:f9:21:4f:a8:4c:62:
                    4c:8e:29:e8:1f:07:30:20:63:87:71:a6:2a:34:ba:
                    da:1b:bd:61:0f:ec:1d:7d:2d:53:dd:6b:31:8a:75:
                    a4:5e:22:6b:75:d5:8b:7c:61:01:e0:92:e2:2b:e7:
                    71:70:26:4f:51:c2:da:bd:de:52:ca:31:dc:a1:cd:
                    05:8e:48:62:83:c1:34:7b:2b:1f:06:73:ec:72:09:
                    e5:d4:86:fc:e7:99:5a:aa:ec:77:cb:b5:1f:0e:2c:
                    91:5a:ca:07:d7:ac:a0:6e:60:81:fd:e0:f3:47:1f:
                    e4:29:bb:d3:14:36:9e:85:09:b1:ba:68:c7:be:c2:
                    0b:cc:2b:39:27:98:e0:6a:0c:85:04:3e:f3:58:62:
                    bc:c8:fa:3b:07:e7:43:f6:e0:61:88:3f:c7:46:6b:
                    61:ec:44:b0:d4:a5:13:8e:7f:c4:4c:2b:65:15:16:
                    56:b2:96:c8:33:cc:e3:05:49:7d:e7:f0:22:d7:0a:
                    47:d0:35:c2:42:ee:b1:b1:39:7a:62:81:b8:21:9e:
                    0a:47:10:25:e9:38:3e:a5:33:f1:48:de:a5:df:17:
                    51:9a:f5:54:15:46:59:5d:00:82:40:c3:ec:9e:b5:
                    0b:e4:2d:3e:57:4b:7d:a2:49:af:a3:06:3d:81:2a:
                    85:7a:a9:41:55:6b:84:e7:06:7b:a1:2f:a2:fe:64:
                    27:f8:c7
                Exponent: 65537 (0x10001)
    Signature Algorithm: md5WithRSAEncryption
         3e:30:46:5e:74:cd:ad:17:03:ea:63:e3:21:94:48:6e:06:d9:
         c1:ce:31:70:26:91:03:0e:c4:ba:5f:bd:85:be:7a:36:2e:ed:
         4f:c7:a6:c6:59:b4:e9:9c:fc:8a:e1:58:93:f1:a1:6d:19:fe:
         93:7c:6a:02:b5:16:c8:23:c5:5b:01:55:98:2d:67:32:0a:d2:
         ea:71:15:19:1b:94:9c:04:bd:10:55:85:73:56:4f:04:af:ba:
         02:3e:c6:04:5c:ea:c5:bd:34:90:71:d6:63:4a:df:74:81:62:
         4e:d6:24:38:d3:67:49:e1:50:19:02:83:d5:12:ba:77:55:ac:
         21:4c:59:3a:12:47:34:75:d9:4a:fb:29:30:45:90:e4:37:18:
         b4:26:66:cf:9e:ad:e6:cb:ba:17:9d:a9:dc:a2:4a:cf:ee:63:
         c1:3f:4b:c3:ee:1e:95:cc:25:86:0f:b1:36:14:5a:ef:20:6f:
         22:76:cb:60:6f:a4:9c:2a:c9:f9:a7:13:81:1c:42:19:f8:7f:
         56:da:be:42:b4:ac:43:03:59:ab:27:48:0b:4b:ea:6f:88:c8:
         ea:e8:55:cc:e0:bc:97:37:ad:aa:cb:4d:be:68:a4:b3:e7:39:
         b4:ac:6d:61:91:39:22:2f:94:bc:d2:1b:63:2a:fb:8d:52:76:
         96:82:db:77:83:80:3e:8a:d3:51:0f:0b:41:b0:20:d7:57:62:
         a8:c6:68:c6:6b:31:02:89:df:ad:a2:f4:4d:81:15:69:f1:86:
         81:0b:75:af:4b:35:70:f1:a9:49:99:ed:c0:33:b2:c4:dd:82:
         4b:03:d9:f1:b4:d3:15:f5:23:ad:18:c6:b5:b1:51:42:1b:c0:
         54:7c:56:88:2a:e2:0e:b5:46:1e:14:17:63:f3:4e:8f:1e:bf:
         63:b4:56:46:61:42:08:33:0a:23:a5:04:cc:7c:d0:da:27:f6:
         90:c0:8b:72:53:4b:5a:54:a4:59:1a:7e:09:45:a8:16:f8:f9:
         ef:0d:70:19:1e:0c:5f:7a:b2:32:f6:1c:ef:2e:ff:7c:7a:90:
         2b:81:62:72:7d:a2:4b:f1:d9:12:6b:45:66:4d:79:2a:ff:ba:
         87:45:e2:70:91:79:bf:87:16:cb:a8:93:e4:27:56:0f:64:2d:
         42:5e:65:7d:cc:00:91:f8:54:d8:b4:d1:02:c7:b6:4f:89:c8:
         27:a9:d6:3c:63:fa:24:93:9a:32:2c:ed:30:70:31:db:e3:0a:
         ce:cf:04:af:ea:e7:f8:7f:84:ea:a8:a6:40:b2:40:36:61:93:
         90:01:eb:62:84:c1:11:16:9f:0a:4d:d6:10:65:39:59:98:42:
         aa:b5:a6:54:97:e6:90:e0
-----BEGIN CERTIFICATE-----
MIIFajCCA1ICAQEwDQYJKoZIhvcNAQEEBQAwgZcxGzAZBgNVBAoTEk1hbHphaG4g
Q29uc3VsdGluZzEQMA4GA1UECxMHVGVzdGxhYjEjMCEGCSqGSIb3DQEJARYUbWF0
dGhpYXNAbWFsemFobi5raW0xDzANBgNVBAcTBkJlcmxpbjEPMA0GA1UECBMGQmVy
bGluMQswCQYDVQQGEwJERTESMBAGA1UEAxMJTWFsemFobkNBMB4XDTE4MDExMTIx
NTkwMFoXDTE5MDExMTIxNTkwMFowXjELMAkGA1UEBhMCREUxDzANBgNVBAgTBkJl
cmxpbjEbMBkGA1UEChMSTWFsemFobiBDb25zdWx0aW5nMRAwDgYDVQQLEwdUZXN0
bGFiMQ8wDQYDVQQDEwZyYXNwaTEwggIiMA0GCSqGSIb3DQEBAQUAA4ICDwAwggIK
AoICAQC0C4TuS6c9CTakCIANBqBtrwTIf2e6CUM2KVVhceKS3f907LBsri1dryvA
x0FK5LjGff3LsspfHSdXLdKfdWrvVN7cgIcGQFlzzqY6725UwZRvApESUqmdkuqj
iyttLY/Q/s+u5/cKSQV9ioODM45Jijffy2Vyneiujl5OEigfWIszxDydWHWQkqpj
JHxuy+V/ZchqXGJ9+BymSsRYYZHyO1cffBUCzG6ZpcVLXmqo+vGX+OUFKxApdld0
X87T2tNh0KuklyvQYV2mI96i4V3yqlJLnevyZ5zzdJn+lapddSRGsbo6vk/P313A
tgDscRGI4MnFIsTG+vkhT6hMYkyOKegfBzAgY4dxpio0utobvWEP7B19LVPdazGK
daReImt11Yt8YQHgkuIr53FwJk9Rwtq93lLKMdyhzQWOSGKDwTR7Kx8Gc+xyCeXU
hvznmVqq7HfLtR8OLJFaygfXrKBuYIH94PNHH+Qpu9MUNp6FCbG6aMe+wgvMKzkn
mOBqDIUEPvNYYrzI+jsH50P24GGIP8dGa2HsRLDUpROOf8RMK2UVFlaylsgzzOMF
SX3n8CLXCkfQNcJC7rGxOXpigbghngpHECXpOD6lM/FI3qXfF1Ga9VQVRlldAIJA
w+yetQvkLT5XS32iSa+jBj2BKoV6qUFVa4TnBnuhL6L+ZCf4xwIDAQABMA0GCSqG
SIb3DQEBBAUAA4ICAQA+MEZedM2tFwPqY+MhlEhuBtnBzjFwJpEDDsS6X72Fvno2
Lu1Px6bGWbTpnPyK4ViT8aFtGf6TfGoCtRbII8VbAVWYLWcyCtLqcRUZG5ScBL0Q
VYVzVk8Er7oCPsYEXOrFvTSQcdZjSt90gWJO1iQ402dJ4VAZAoPVErp3VawhTFk6
Ekc0ddlK+ykwRZDkNxi0JmbPnq3my7oXnancokrP7mPBP0vD7h6VzCWGD7E2FFrv
IG8idstgb6ScKsn5pxOBHEIZ+H9W2r5CtKxDA1mrJ0gLS+pviMjq6FXM4LyXN62q
y02+aKSz5zm0rG1hkTkiL5S80htjKvuNUnaWgtt3g4A+itNRDwtBsCDXV2KoxmjG
azECid+tovRNgRVp8YaBC3WvSzVw8alJme3AM7LE3YJLA9nxtNMV9SOtGMa1sVFC
G8BUfFaIKuIOtUYeFBdj806PHr9jtFZGYUIIMwojpQTMfNDaJ/aQwItyU0taVKRZ
Gn4JRagW+PnvDXAZHgxferIy9hzvLv98epArgWJyfaJL8dkSa0VmTXkq/7qHReJw
kXm/hxbLqJPkJ1YPZC1CXmV9zACR+FTYtNECx7ZPicgnqdY8Y/okk5oyLO0wcDHb
4wrOzwSv6uf4f4TqqKZAskA2YZOQAetihMERFp8KTdYQZTlZmEKqtaZUl+aQ4A==
-----END CERTIFICATE-----
